target datalayout = "e-m:e-p270:32:32-p271:32:32-p272:64:64-i64:64-i128:128-f80:128-n8:16:32:64-S128"
target triple = "x86_64-pc-linux-gnu"

%class.MarkBitMap = type { ptr, %class.MemRegion, i32, %class.BitMapView }
%class.MemRegion = type { ptr, i64 }
%class.BitMapView = type { %class.BitMap }
%class.BitMap = type { ptr, i64 }

; Function Attrs: mustprogress nounwind uwtable
define linkonce_odr hidden noundef i64 @_Z13pointer_deltaPVKvS0_m(ptr noundef %0, ptr noundef %1, i64 noundef %2) #1 comdat {
  %4 = alloca ptr, align 8
  %5 = alloca ptr, align 8
  %6 = alloca i64, align 8
  store ptr %0, ptr %4, align 8
  store ptr %1, ptr %5, align 8
  store i64 %2, ptr %6, align 8
  %7 = load ptr, ptr %4, align 8
  %8 = ptrtoint ptr %7 to i64
  %9 = load ptr, ptr %5, align 8
  %10 = ptrtoint ptr %9 to i64
  %11 = sub i64 %8, %10
  %12 = load i64, ptr %6, align 8
  %13 = udiv i64 %11, %12
  ret i64 %13
}

; Function Attrs: mustprogress nounwind uwtable
define linkonce_odr hidden noundef i64 @_Z13pointer_deltaPKP12HeapWordImplS2_(ptr noundef %0, ptr noundef %1) #1 comdat {
  %3 = alloca ptr, align 8
  %4 = alloca ptr, align 8
  store ptr %0, ptr %3, align 8
  store ptr %1, ptr %4, align 8
  %5 = load ptr, ptr %3, align 8
  %6 = load ptr, ptr %4, align 8
  %7 = call noundef i64 @_Z13pointer_deltaPVKvS0_m(ptr noundef %5, ptr noundef %6, i64 noundef 8)
  ret i64 %7
}

; Function Attrs: mustprogress nounwind uwtable
define linkonce_odr hidden noundef ptr @_ZNK9MemRegion3endEv(ptr noundef nonnull align 8 dereferenceable(16) %0) #1 comdat align 2 {
  %2 = alloca ptr, align 8
  store ptr %0, ptr %2, align 8
  %3 = load ptr, ptr %2, align 8
  %4 = getelementptr inbounds %class.MemRegion, ptr %3, i32 0, i32 0
  %5 = load ptr, ptr %4, align 8
  %6 = getelementptr inbounds %class.MemRegion, ptr %3, i32 0, i32 1
  %7 = load i64, ptr %6, align 8
  %8 = getelementptr inbounds ptr, ptr %5, i64 %7
  ret ptr %8
}

; Function Attrs: mustprogress nounwind uwtable
define linkonce_odr hidden noundef i64 @_ZNK10MarkBitMap14addr_to_offsetEPKP12HeapWordImpl(ptr noundef nonnull align 8 dereferenceable(48) %0, ptr noundef %1) #1 comdat align 2 {
  %3 = alloca ptr, align 8
  %4 = alloca ptr, align 8
  store ptr %0, ptr %3, align 8
  store ptr %1, ptr %4, align 8
  %5 = load ptr, ptr %3, align 8
  %6 = load ptr, ptr %4, align 8
  %7 = getelementptr inbounds %class.MarkBitMap, ptr %5, i32 0, i32 1
  %8 = call noundef ptr @_ZNK9MemRegion5startEv(ptr noundef nonnull align 8 dereferenceable(16) %7)
  %9 = call noundef i64 @_Z13pointer_deltaPKP12HeapWordImplS2_(ptr noundef %6, ptr noundef %8)
  %10 = getelementptr inbounds %class.MarkBitMap, ptr %5, i32 0, i32 2
  %11 = load i32, ptr %10, align 8
  %12 = zext i32 %11 to i64
  %13 = lshr i64 %9, %12
  ret i64 %13
}

; Function Attrs: mustprogress nounwind uwtable
define linkonce_odr hidden noundef ptr @_ZNK9MemRegion5startEv(ptr noundef nonnull align 8 dereferenceable(16) %0) #1 comdat align 2 {
  %2 = alloca ptr, align 8
  store ptr %0, ptr %2, align 8
  %3 = load ptr, ptr %2, align 8
  %4 = getelementptr inbounds %class.MemRegion, ptr %3, i32 0, i32 0
  %5 = load ptr, ptr %4, align 8
  ret ptr %5
}

; Function Attrs: mustprogress nounwind uwtable
define hidden void @_ZN10MarkBitMap8do_clearE9MemRegionb(ptr noundef nonnull align 8 dereferenceable(48) %0, ptr %1, i64 %2, i1 noundef zeroext %3) #1 align 2 {
  %5 = alloca %class.MemRegion, align 8
  %6 = alloca ptr, align 8
  %7 = alloca i8, align 1
  %8 = alloca %class.MemRegion, align 8
  %9 = alloca %class.MemRegion, align 8
  %10 = alloca i64, align 8
  %11 = alloca i64, align 8
  %12 = getelementptr inbounds { ptr, i64 }, ptr %5, i32 0, i32 0
  store ptr %1, ptr %12, align 8
  %13 = getelementptr inbounds { ptr, i64 }, ptr %5, i32 0, i32 1
  store i64 %2, ptr %13, align 8
  store ptr %0, ptr %6, align 8
  %14 = zext i1 %3 to i8
  store i8 %14, ptr %7, align 1
  %15 = load ptr, ptr %6, align 8
  %16 = getelementptr inbounds %class.MarkBitMap, ptr %15, i32 0, i32 1
  call void @llvm.memcpy.p0.p0.i64(ptr align 8 %9, ptr align 8 %16, i64 16, i1 false)
  %17 = getelementptr inbounds { ptr, i64 }, ptr %9, i32 0, i32 0
  %18 = load ptr, ptr %17, align 8
  %19 = getelementptr inbounds { ptr, i64 }, ptr %9, i32 0, i32 1
  %20 = load i64, ptr %19, align 8
  %21 = call { ptr, i64 } @_ZNK9MemRegion12intersectionES_(ptr noundef nonnull align 8 dereferenceable(16) %5, ptr %18, i64 %20)
  %22 = getelementptr inbounds { ptr, i64 }, ptr %8, i32 0, i32 0
  %23 = extractvalue { ptr, i64 } %21, 0
  store ptr %23, ptr %22, align 8
  %24 = getelementptr inbounds { ptr, i64 }, ptr %8, i32 0, i32 1
  %25 = extractvalue { ptr, i64 } %21, 1
  store i64 %25, ptr %24, align 8
  %26 = call noundef ptr @_ZNK9MemRegion5startEv(ptr noundef nonnull align 8 dereferenceable(16) %8)
  %27 = call noundef i64 @_ZNK10MarkBitMap14addr_to_offsetEPKP12HeapWordImpl(ptr noundef nonnull align 8 dereferenceable(48) %15, ptr noundef %26)
  store i64 %27, ptr %10, align 8
  %28 = call noundef ptr @_ZNK9MemRegion3endEv(ptr noundef nonnull align 8 dereferenceable(16) %8)
  %29 = call noundef i64 @_ZNK10MarkBitMap14addr_to_offsetEPKP12HeapWordImpl(ptr noundef nonnull align 8 dereferenceable(48) %15, ptr noundef %28)
  store i64 %29, ptr %11, align 8
  %30 = load i8, ptr %7, align 1
  %31 = trunc i8 %30 to i1
  br i1 %31, label %32, label %36

32:                                               ; preds = %4
  %33 = getelementptr inbounds %class.MarkBitMap, ptr %15, i32 0, i32 3
  %34 = load i64, ptr %10, align 8
  %35 = load i64, ptr %11, align 8
  call void @_ZN6BitMap17clear_large_rangeEmm(ptr noundef nonnull align 8 dereferenceable(16) %33, i64 noundef %34, i64 noundef %35)
  br label %40

36:                                               ; preds = %4
  %37 = getelementptr inbounds %class.MarkBitMap, ptr %15, i32 0, i32 3
  %38 = load i64, ptr %10, align 8
  %39 = load i64, ptr %11, align 8
  call void @_ZN6BitMap11clear_rangeEmm(ptr noundef nonnull align 8 dereferenceable(16) %37, i64 noundef %38, i64 noundef %39)
  br label %40

40:                                               ; preds = %36, %32
  ret void
}