; Function Attrs: mustprogress nounwind uwtable
define hidden void @_ZN10MarkBitMap8do_clearE9MemRegionb(ptr noundef nonnull align 8 dereferenceable(48) %0, ptr %1, i64 %2, i1 noundef zeroext %3) local_unnamed_addr #0 align 2 {
  %5 = alloca %class.MemRegion, align 8
  store ptr %1, ptr %5, align 8
  %6 = getelementptr inbounds i8, ptr %5, i64 8
  store i64 %2, ptr %6, align 8
  %7 = getelementptr inbounds i8, ptr %0, i64 8
  %.sroa.0.0.copyload = load ptr, ptr %7, align 8
  %.sroa.2.0..sroa_idx = getelementptr inbounds i8, ptr %0, i64 16
  %.sroa.2.0.copyload = load i64, ptr %.sroa.2.0..sroa_idx, align 8
  %8 = call { ptr, i64 } @_ZNK9MemRegion12intersectionES_(ptr noundef nonnull align 8 dereferenceable(16) %5, ptr %.sroa.0.0.copyload, i64 %.sroa.2.0.copyload) #5
  %9 = extractvalue { ptr, i64 } %8, 0
  %10 = extractvalue { ptr, i64 } %8, 1
  %11 = load ptr, ptr %7, align 8
  %12 = ptrtoint ptr %9 to i64
  %13 = ptrtoint ptr %11 to i64
  %14 = sub i64 %12, %13
  %15 = lshr i64 %14, 3
  %16 = getelementptr inbounds i8, ptr %0, i64 24
  %17 = load i32, ptr %16, align 8
  %18 = zext nneg i32 %17 to i64
  %19 = lshr i64 %15, %18
  %20 = getelementptr inbounds ptr, ptr %9, i64 %10
  %21 = ptrtoint ptr %20 to i64
  %22 = sub i64 %21, %13
  %23 = lshr i64 %22, 3
  %24 = lshr i64 %23, %18
  %25 = getelementptr inbounds i8, ptr %0, i64 32
  br i1 %3, label %26, label %27

26:                                               ; preds = %4
  call void @_ZN6BitMap17clear_large_rangeEmm(ptr noundef nonnull align 8 dereferenceable(16) %25, i64 noundef %19, i64 noundef %24) #5
  br label %28

27:                                               ; preds = %4
  call void @_ZN6BitMap11clear_rangeEmm(ptr noundef nonnull align 8 dereferenceable(16) %25, i64 noundef %19, i64 noundef %24) #5
  br label %28

28:                                               ; preds = %27, %26
  ret void
}